target datalayout = "e-m:e-p270:32:32-p271:32:32-p272:64:64-i64:64-i128:128-f80:128-n8:16:32:64-S128"
target triple = "x86_64-pc-linux-gnu"

%struct.CVodeMemRec = type { ptr, double, ptr, ptr, i32, i32, double, double, ptr, i32, i32, ptr, ptr, i32, i32, ptr, i32, i32, double, double, ptr, i32, i32, i32, i32, ptr, ptr, ptr, i32, i32, ptr, ptr, ptr, i32, double, i32, i32, double, ptr, ptr, ptr, i32, ptr, ptr, i32, i32, i32, double, ptr, ptr, ptr, [13 x ptr], ptr, ptr, ptr, ptr, ptr, ptr, ptr, ptr, ptr, [13 x ptr], ptr, ptr, ptr, ptr, [13 x ptr], ptr, ptr, ptr, ptr, ptr, i32, [13 x ptr], ptr, ptr, ptr, ptr, ptr, i32, i32, double, i32, i32, i32, i32, i32, double, double, double, double, double, double, double, double, [14 x double], [6 x double], [13 x double], double, double, double, double, double, double, double, double, i32, double, double, i32, double, double, ptr, i32, i64, i32, i32, i32, double, double, double, double, double, double, double, double, double, double, double, double, i64, i32, i64, i64, i64, i64, i64, i64, i64, i64, i64, ptr, i64, i64, ptr, i64, i64, ptr, i64, i64, i64, i64, i64, i64, i32, double, double, double, i64, i64, i64, i64, i64, i64, ptr, i32, ptr, i32, ptr, i32, ptr, i32, i32, i64, i32, ptr, i32, ptr, ptr, ptr, ptr, ptr, ptr, i32, i32, ptr, ptr, ptr, ptr, ptr, i64, double, i32, i32, i64, double, double, double, i32, i32, double, i32, i32, i32, i32, i32, i32, i32, i32, i32, i32, i32, i32, i32, i32, i32, i32, ptr, i64, i32, [6 x [4 x double]], i32, i64, ptr, i32, ptr, ptr, double, double, double, ptr, ptr, ptr, double, double, i32, i32, i64, ptr, i32, ptr, i32, i32, [13 x double], ptr, ptr, ptr, i32, ptr, i32 }

; Function Attrs: nounwind uwtable
define void @CVodeFree(ptr noundef %0) #0 {
  %2 = alloca ptr, align 8
  %3 = alloca ptr, align 8
  %4 = alloca i32, align 4
  store ptr %0, ptr %2, align 8, !tbaa !153
  call void @llvm.lifetime.start.p0(i64 8, ptr %3) #10
  %5 = load ptr, ptr %2, align 8, !tbaa !153
  %6 = load ptr, ptr %5, align 8, !tbaa !153
  %7 = icmp eq ptr %6, null
  br i1 %7, label %8, label %9

8:                                                ; preds = %1
  store i32 1, ptr %4, align 4
  br label %105

9:                                                ; preds = %1
  %10 = load ptr, ptr %2, align 8, !tbaa !153
  %11 = load ptr, ptr %10, align 8, !tbaa !153
  store ptr %11, ptr %3, align 8, !tbaa !10
  %12 = load ptr, ptr %3, align 8, !tbaa !10
  call void @cvFreeVectors(ptr noundef %12)
  %13 = load ptr, ptr %3, align 8, !tbaa !10
  %14 = getelementptr inbounds nuw %struct.CVodeMemRec, ptr %13, i32 0, i32 165
  %15 = load i32, ptr %14, align 8, !tbaa !125
  %16 = icmp ne i32 %15, 0
  br i1 %16, label %17, label %26

17:                                               ; preds = %9
  %18 = load ptr, ptr %3, align 8, !tbaa !10
  %19 = getelementptr inbounds nuw %struct.CVodeMemRec, ptr %18, i32 0, i32 164
  %20 = load ptr, ptr %19, align 8, !tbaa !124
  %21 = call i32 @SUNNonlinSolFree(ptr noundef %20)
  %22 = load ptr, ptr %3, align 8, !tbaa !10
  %23 = getelementptr inbounds nuw %struct.CVodeMemRec, ptr %22, i32 0, i32 165
  store i32 0, ptr %23, align 8, !tbaa !125
  %24 = load ptr, ptr %3, align 8, !tbaa !10
  %25 = getelementptr inbounds nuw %struct.CVodeMemRec, ptr %24, i32 0, i32 164
  store ptr null, ptr %25, align 8, !tbaa !124
  br label %26

26:                                               ; preds = %17, %9
  %27 = load ptr, ptr %3, align 8, !tbaa !10
  call void @CVodeQuadFree(ptr noundef %27)
  %28 = load ptr, ptr %3, align 8, !tbaa !10
  call void @CVodeSensFree(ptr noundef %28)
  %29 = load ptr, ptr %3, align 8, !tbaa !10
  call void @CVodeQuadSensFree(ptr noundef %29)
  %30 = load ptr, ptr %3, align 8, !tbaa !10
  call void @CVodeAdjFree(ptr noundef %30)
  %31 = load ptr, ptr %3, align 8, !tbaa !10
  %32 = getelementptr inbounds nuw %struct.CVodeMemRec, ptr %31, i32 0, i32 188
  %33 = load ptr, ptr %32, align 8, !tbaa !179
  %34 = icmp ne ptr %33, null
  br i1 %34, label %35, label %41

35:                                               ; preds = %26
  %36 = load ptr, ptr %3, align 8, !tbaa !10
  %37 = getelementptr inbounds nuw %struct.CVodeMemRec, ptr %36, i32 0, i32 188
  %38 = load ptr, ptr %37, align 8, !tbaa !179
  %39 = load ptr, ptr %3, align 8, !tbaa !10
  %40 = call i32 %38(ptr noundef %39)
  br label %41

41:                                               ; preds = %35, %26
  %42 = load ptr, ptr %3, align 8, !tbaa !10
  %43 = getelementptr inbounds nuw %struct.CVodeMemRec, ptr %42, i32 0, i32 224
  %44 = load i32, ptr %43, align 8, !tbaa !69
  %45 = icmp sgt i32 %44, 0
  br i1 %45, label %46, label %77

46:                                               ; preds = %41
  %47 = load ptr, ptr %3, align 8, !tbaa !10
  %48 = getelementptr inbounds nuw %struct.CVodeMemRec, ptr %47, i32 0, i32 230
  %49 = load ptr, ptr %48, align 8, !tbaa !63
  call void @free(ptr noundef %49) #10
  %50 = load ptr, ptr %3, align 8, !tbaa !10
  %51 = getelementptr inbounds nuw %struct.CVodeMemRec, ptr %50, i32 0, i32 230
  store ptr null, ptr %51, align 8, !tbaa !63
  %52 = load ptr, ptr %3, align 8, !tbaa !10
  %53 = getelementptr inbounds nuw %struct.CVodeMemRec, ptr %52, i32 0, i32 231
  %54 = load ptr, ptr %53, align 8, !tbaa !64
  call void @free(ptr noundef %54) #10
  %55 = load ptr, ptr %3, align 8, !tbaa !10
  %56 = getelementptr inbounds nuw %struct.CVodeMemRec, ptr %55, i32 0, i32 231
  store ptr null, ptr %56, align 8, !tbaa !64
  %57 = load ptr, ptr %3, align 8, !tbaa !10
  %58 = getelementptr inbounds nuw %struct.CVodeMemRec, ptr %57, i32 0, i32 232
  %59 = load ptr, ptr %58, align 8, !tbaa !65
  call void @free(ptr noundef %59) #10
  %60 = load ptr, ptr %3, align 8, !tbaa !10
  %61 = getelementptr inbounds nuw %struct.CVodeMemRec, ptr %60, i32 0, i32 232
  store ptr null, ptr %61, align 8, !tbaa !65
  %62 = load ptr, ptr %3, align 8, !tbaa !10
  %63 = getelementptr inbounds nuw %struct.CVodeMemRec, ptr %62, i32 0, i32 225
  %64 = load ptr, ptr %63, align 8, !tbaa !66
  call void @free(ptr noundef %64) #10
  %65 = load ptr, ptr %3, align 8, !tbaa !10
  %66 = getelementptr inbounds nuw %struct.CVodeMemRec, ptr %65, i32 0, i32 225
  store ptr null, ptr %66, align 8, !tbaa !66
  %67 = load ptr, ptr %3, align 8, !tbaa !10
  %68 = getelementptr inbounds nuw %struct.CVodeMemRec, ptr %67, i32 0, i32 226
  %69 = load ptr, ptr %68, align 8, !tbaa !67
  call void @free(ptr noundef %69) #10
  %70 = load ptr, ptr %3, align 8, !tbaa !10
  %71 = getelementptr inbounds nuw %struct.CVodeMemRec, ptr %70, i32 0, i32 226
  store ptr null, ptr %71, align 8, !tbaa !67
  %72 = load ptr, ptr %3, align 8, !tbaa !10
  %73 = getelementptr inbounds nuw %struct.CVodeMemRec, ptr %72, i32 0, i32 238
  %74 = load ptr, ptr %73, align 8, !tbaa !70
  call void @free(ptr noundef %74) #10
  %75 = load ptr, ptr %3, align 8, !tbaa !10
  %76 = getelementptr inbounds nuw %struct.CVodeMemRec, ptr %75, i32 0, i32 238
  store ptr null, ptr %76, align 8, !tbaa !70
  br label %77

77:                                               ; preds = %46, %41
  %78 = load ptr, ptr %3, align 8, !tbaa !10
  %79 = getelementptr inbounds nuw %struct.CVodeMemRec, ptr %78, i32 0, i32 244
  %80 = load ptr, ptr %79, align 8, !tbaa !164
  call void @free(ptr noundef %80) #10
  %81 = load ptr, ptr %3, align 8, !tbaa !10
  %82 = getelementptr inbounds nuw %struct.CVodeMemRec, ptr %81, i32 0, i32 244
  store ptr null, ptr %82, align 8, !tbaa !164
  %83 = load ptr, ptr %3, align 8, !tbaa !10
  %84 = getelementptr inbounds nuw %struct.CVodeMemRec, ptr %83, i32 0, i32 245
  %85 = load ptr, ptr %84, align 8, !tbaa !165
  call void @free(ptr noundef %85) #10
  %86 = load ptr, ptr %3, align 8, !tbaa !10
  %87 = getelementptr inbounds nuw %struct.CVodeMemRec, ptr %86, i32 0, i32 245
  store ptr null, ptr %87, align 8, !tbaa !165
  %88 = load ptr, ptr %3, align 8, !tbaa !10
  %89 = getelementptr inbounds nuw %struct.CVodeMemRec, ptr %88, i32 0, i32 246
  %90 = load ptr, ptr %89, align 8, !tbaa !166
  call void @free(ptr noundef %90) #10
  %91 = load ptr, ptr %3, align 8, !tbaa !10
  %92 = getelementptr inbounds nuw %struct.CVodeMemRec, ptr %91, i32 0, i32 246
  store ptr null, ptr %92, align 8, !tbaa !166
  %93 = load ptr, ptr %3, align 8, !tbaa !10
  %94 = getelementptr inbounds nuw %struct.CVodeMemRec, ptr %93, i32 0, i32 240
  %95 = load ptr, ptr %94, align 8, !tbaa !72
  %96 = icmp ne ptr %95, null
  br i1 %96, label %97, label %101

97:                                               ; preds = %77
  %98 = load ptr, ptr %3, align 8, !tbaa !10
  %99 = getelementptr inbounds nuw %struct.CVodeMemRec, ptr %98, i32 0, i32 240
  %100 = call i32 @cvProjFree(ptr noundef %99)
  br label %101

101:                                              ; preds = %97, %77
  %102 = load ptr, ptr %2, align 8, !tbaa !153
  %103 = load ptr, ptr %102, align 8, !tbaa !153
  call void @free(ptr noundef %103) #10
  %104 = load ptr, ptr %2, align 8, !tbaa !153
  store ptr null, ptr %104, align 8, !tbaa !153
  store i32 0, ptr %4, align 4
  br label %105

105:                                              ; preds = %101, %8
  call void @llvm.lifetime.end.p0(i64 8, ptr %3) #10
  %106 = load i32, ptr %4, align 4
  switch i32 %106, label %108 [
    i32 0, label %107
    i32 1, label %107
  ]

107:                                              ; preds = %105, %105
  ret void

108:                                              ; preds = %105
  unreachable
}