; Function Attrs: nounwind uwtable
define void @CVodeFree(ptr noundef captures(none) %0) local_unnamed_addr #0 {
  %2 = load ptr, ptr %0, align 8, !tbaa !288
  %3 = icmp eq ptr %2, null
  br i1 %3, label %46, label %4

4:                                                ; preds = %1
  tail call fastcc void @cvFreeVectors(ptr noundef %2)
  %5 = getelementptr inbounds nuw i8, ptr %2, i64 1840
  %6 = load i32, ptr %5, align 8, !tbaa !107
  %.not = icmp eq i32 %6, 0
  br i1 %.not, label %11, label %7

7:                                                ; preds = %4
  %8 = getelementptr inbounds nuw i8, ptr %2, i64 1832
  %9 = load ptr, ptr %8, align 8, !tbaa !257
  %10 = tail call i32 @SUNNonlinSolFree(ptr noundef %9) #13
  store i32 0, ptr %5, align 8, !tbaa !107
  store ptr null, ptr %8, align 8, !tbaa !257
  br label %11

11:                                               ; preds = %7, %4
  tail call void @CVodeQuadFree(ptr noundef nonnull %2)
  tail call void @CVodeSensFree(ptr noundef nonnull %2)
  tail call void @CVodeQuadSensFree(ptr noundef nonnull %2)
  tail call void @CVodeAdjFree(ptr noundef nonnull %2) #13
  %12 = getelementptr inbounds nuw i8, ptr %2, i64 2008
  %13 = load ptr, ptr %12, align 8, !tbaa !289
  %.not38 = icmp eq ptr %13, null
  br i1 %.not38, label %16, label %14

14:                                               ; preds = %11
  %15 = tail call i32 %13(ptr noundef nonnull %2) #13
  br label %16

16:                                               ; preds = %14, %11
  %17 = getelementptr inbounds nuw i8, ptr %2, i64 2400
  %18 = load i32, ptr %17, align 8, !tbaa !208
  %19 = icmp sgt i32 %18, 0
  br i1 %19, label %20, label %33

20:                                               ; preds = %16
  %21 = getelementptr inbounds nuw i8, ptr %2, i64 2448
  %22 = load ptr, ptr %21, align 8, !tbaa !209
  tail call void @free(ptr noundef %22) #13
  store ptr null, ptr %21, align 8, !tbaa !209
  %23 = getelementptr inbounds nuw i8, ptr %2, i64 2456
  %24 = load ptr, ptr %23, align 8, !tbaa !210
  tail call void @free(ptr noundef %24) #13
  store ptr null, ptr %23, align 8, !tbaa !210
  %25 = getelementptr inbounds nuw i8, ptr %2, i64 2464
  %26 = load ptr, ptr %25, align 8, !tbaa !211
  tail call void @free(ptr noundef %26) #13
  store ptr null, ptr %25, align 8, !tbaa !211
  %27 = getelementptr inbounds nuw i8, ptr %2, i64 2408
  %28 = load ptr, ptr %27, align 8, !tbaa !212
  tail call void @free(ptr noundef %28) #13
  store ptr null, ptr %27, align 8, !tbaa !212
  %29 = getelementptr inbounds nuw i8, ptr %2, i64 2416
  %30 = load ptr, ptr %29, align 8, !tbaa !213
  tail call void @free(ptr noundef %30) #13
  store ptr null, ptr %29, align 8, !tbaa !213
  %31 = getelementptr inbounds nuw i8, ptr %2, i64 2504
  %32 = load ptr, ptr %31, align 8, !tbaa !214
  tail call void @free(ptr noundef %32) #13
  store ptr null, ptr %31, align 8, !tbaa !214
  br label %33

33:                                               ; preds = %20, %16
  %34 = getelementptr inbounds nuw i8, ptr %2, i64 2640
  %35 = load ptr, ptr %34, align 8, !tbaa !103
  tail call void @free(ptr noundef %35) #13
  store ptr null, ptr %34, align 8, !tbaa !103
  %36 = getelementptr inbounds nuw i8, ptr %2, i64 2648
  %37 = load ptr, ptr %36, align 8, !tbaa !104
  tail call void @free(ptr noundef %37) #13
  store ptr null, ptr %36, align 8, !tbaa !104
  %38 = getelementptr inbounds nuw i8, ptr %2, i64 2656
  %39 = load ptr, ptr %38, align 8, !tbaa !105
  tail call void @free(ptr noundef %39) #13
  store ptr null, ptr %38, align 8, !tbaa !105
  %40 = getelementptr inbounds nuw i8, ptr %2, i64 2520
  %41 = load ptr, ptr %40, align 8, !tbaa !226
  %.not39 = icmp eq ptr %41, null
  br i1 %.not39, label %44, label %42

42:                                               ; preds = %33
  %43 = tail call i32 @cvProjFree(ptr noundef nonnull %40) #13
  br label %44

44:                                               ; preds = %42, %33
  %45 = load ptr, ptr %0, align 8, !tbaa !288
  tail call void @free(ptr noundef %45) #13
  store ptr null, ptr %0, align 8, !tbaa !288
  br label %46

46:                                               ; preds = %1, %44
  ret void
}